; Function Attrs: mustprogress uwtable
define hidden void @_ZN2cv3ccm5ColorC2ENS_3MatERKNS0_10ColorSpaceES2_(ptr noundef nonnull align 8 dereferenceable(352) %0, ptr noundef nonnull %1, ptr noundef nonnull align 8 dereferenceable(200) %2, ptr noundef %3) unnamed_addr #0 align 2 personality ptr @__gxx_personality_v0 {
  %5 = alloca %"class.cv::MatExpr", align 8
  store ptr getelementptr inbounds inrange(-16, 16) (i8, ptr @_ZTVN2cv3ccm5ColorE, i64 16), ptr %0, align 8
  %6 = getelementptr inbounds i8, ptr %0, i64 8
  tail call void @_ZN2cv3MatC1ERKS0_(ptr noundef nonnull align 8 dereferenceable(96) %6, ptr noundef nonnull align 8 dereferenceable(96) %1)
  %7 = getelementptr inbounds i8, ptr %0, i64 104
  store ptr %2, ptr %7, align 8
  %8 = getelementptr inbounds i8, ptr %0, i64 112
  tail call void @_ZN2cv3MatC1Ev(ptr noundef nonnull align 8 dereferenceable(96) %8) #14
  %9 = getelementptr inbounds i8, ptr %0, i64 208
  invoke void @_ZN2cv3MatC1ERKS0_(ptr noundef nonnull align 8 dereferenceable(96) %9, ptr noundef nonnull align 8 dereferenceable(96) %3)
          to label %10 unwind label %25

10:                                               ; preds = %4
  %11 = getelementptr inbounds i8, ptr %0, i64 304
  %12 = getelementptr inbounds i8, ptr %0, i64 312
  store i32 0, ptr %12, align 8
  %13 = getelementptr inbounds i8, ptr %0, i64 320
  store ptr null, ptr %13, align 8
  %14 = getelementptr inbounds i8, ptr %0, i64 328
  store ptr %12, ptr %14, align 8
  %15 = getelementptr inbounds i8, ptr %0, i64 336
  store ptr %12, ptr %15, align 8
  %16 = getelementptr inbounds i8, ptr %0, i64 344
  store i64 0, ptr %16, align 8
  invoke void @_ZN2cvcoERKNS_3MatE(ptr dead_on_unwind nonnull writable sret(%"class.cv::MatExpr") align 8 %5, ptr noundef nonnull align 8 dereferenceable(96) %9)
          to label %17 unwind label %27

17:                                               ; preds = %10
  %18 = load ptr, ptr %5, align 8
  %19 = load ptr, ptr %18, align 8
  %20 = getelementptr inbounds i8, ptr %19, i64 24
  %21 = load ptr, ptr %20, align 8
  invoke void %21(ptr noundef nonnull align 8 dereferenceable(8) %18, ptr noundef nonnull align 8 dereferenceable(352) %5, ptr noundef nonnull align 8 dereferenceable(96) %8, i32 noundef -1)
          to label %_ZN2cv3MataSERKNS_7MatExprE.exit unwind label %29

_ZN2cv3MataSERKNS_7MatExprE.exit:                 ; preds = %17
  %22 = getelementptr inbounds i8, ptr %5, i64 208
  call void @_ZN2cv3MatD1Ev(ptr noundef nonnull align 8 dereferenceable(96) %22) #14
  %23 = getelementptr inbounds i8, ptr %5, i64 112
  call void @_ZN2cv3MatD1Ev(ptr noundef nonnull align 8 dereferenceable(96) %23) #14
  %24 = getelementptr inbounds i8, ptr %5, i64 16
  call void @_ZN2cv3MatD1Ev(ptr noundef nonnull align 8 dereferenceable(96) %24) #14
  ret void

25:                                               ; preds = %4
  %26 = landingpad { ptr, i32 }
          cleanup
  br label %32

27:                                               ; preds = %10
  %28 = landingpad { ptr, i32 }
          cleanup
  br label %31

29:                                               ; preds = %17
  %30 = landingpad { ptr, i32 }
          cleanup
  call void @_ZN2cv7MatExprD2Ev(ptr noundef nonnull align 8 dereferenceable(352) %5) #14
  br label %31

31:                                               ; preds = %29, %27
  %.pn = phi { ptr, i32 } [ %30, %29 ], [ %28, %27 ]
  call void @_ZNSt3mapIN2cv3ccm10ColorSpaceESt10shared_ptrINS1_5ColorEESt4lessIS2_ESaISt4pairIKS2_S5_EEED2Ev(ptr noundef nonnull align 8 dereferenceable(48) %11) #14
  call void @_ZN2cv3MatD1Ev(ptr noundef nonnull align 8 dereferenceable(96) %9) #14
  br label %32

32:                                               ; preds = %31, %25
  %.pn.pn = phi { ptr, i32 } [ %.pn, %31 ], [ %26, %25 ]
  call void @_ZN2cv3MatD1Ev(ptr noundef nonnull align 8 dereferenceable(96) %8) #14
  call void @_ZN2cv3MatD1Ev(ptr noundef nonnull align 8 dereferenceable(96) %6) #14
  resume { ptr, i32 } %.pn.pn
}